target datalayout = "e-m:e-p270:32:32-p271:32:32-p272:64:64-i64:64-i128:128-f80:128-n8:16:32:64-S128"
target triple = "x86_64-pc-linux-gnu"

; Function Attrs: nounwind uwtable
define hidden void @opj_write_bytes_LE(ptr noundef %0, i32 noundef %1, i32 noundef %2) #0 {
  %4 = alloca ptr, align 8
  %5 = alloca i32, align 4
  %6 = alloca i32, align 4
  %7 = alloca ptr, align 8
  %8 = alloca i32, align 4
  store ptr %0, ptr %4, align 8, !tbaa !3
  store i32 %1, ptr %5, align 4, !tbaa !8
  store i32 %2, ptr %6, align 4, !tbaa !8
  call void @llvm.lifetime.start.p0(i64 8, ptr %7) #4
  %9 = load i32, ptr %6, align 4, !tbaa !8
  %10 = zext i32 %9 to i64
  %11 = getelementptr inbounds nuw i8, ptr %5, i64 %10
  %12 = getelementptr inbounds i8, ptr %11, i64 -1
  store ptr %12, ptr %7, align 8, !tbaa !3
  call void @llvm.lifetime.start.p0(i64 4, ptr %8) #4
  store i32 0, ptr %8, align 4, !tbaa !8
  br label %13

13:                                               ; preds = %23, %3
  %14 = load i32, ptr %8, align 4, !tbaa !8
  %15 = load i32, ptr %6, align 4, !tbaa !8
  %16 = icmp ult i32 %14, %15
  br i1 %16, label %17, label %26

17:                                               ; preds = %13
  %18 = load ptr, ptr %7, align 8, !tbaa !3
  %19 = getelementptr inbounds i8, ptr %18, i32 -1
  store ptr %19, ptr %7, align 8, !tbaa !3
  %20 = load i8, ptr %18, align 1, !tbaa !10
  %21 = load ptr, ptr %4, align 8, !tbaa !3
  %22 = getelementptr inbounds nuw i8, ptr %21, i32 1
  store ptr %22, ptr %4, align 8, !tbaa !3
  store i8 %20, ptr %21, align 1, !tbaa !10
  br label %23

23:                                               ; preds = %17
  %24 = load i32, ptr %8, align 4, !tbaa !8
  %25 = add i32 %24, 1
  store i32 %25, ptr %8, align 4, !tbaa !8
  br label %13, !llvm.loop !11

26:                                               ; preds = %13
  call void @llvm.lifetime.end.p0(i64 4, ptr %8) #4
  call void @llvm.lifetime.end.p0(i64 8, ptr %7) #4
  ret void
}