; Function Attrs: nofree norecurse nosync nounwind memory(argmem: write) uwtable
define hidden void @opj_write_bytes_LE(ptr noundef writeonly captures(none) %0, i32 noundef %1, i32 noundef %2) local_unnamed_addr #2 {
  %4 = alloca i32, align 4
  store i32 %1, ptr %4, align 4, !tbaa !3
  %.not = icmp eq i32 %2, 0
  br i1 %.not, label %._crit_edge, label %.lr.ph.preheader

.lr.ph.preheader:                                 ; preds = %3
  %5 = zext i32 %2 to i64
  %6 = getelementptr inbounds nuw i8, ptr %4, i64 %5
  br label %.lr.ph

.lr.ph:                                           ; preds = %.lr.ph.preheader, %.lr.ph
  %.09 = phi i32 [ %9, %.lr.ph ], [ 0, %.lr.ph.preheader ]
  %.pn8 = phi ptr [ %.05, %.lr.ph ], [ %6, %.lr.ph.preheader ]
  %.067 = phi ptr [ %8, %.lr.ph ], [ %0, %.lr.ph.preheader ]
  %.05 = getelementptr inbounds i8, ptr %.pn8, i64 -1
  %7 = load i8, ptr %.05, align 1, !tbaa !7
  %8 = getelementptr inbounds nuw i8, ptr %.067, i64 1
  store i8 %7, ptr %.067, align 1, !tbaa !7
  %9 = add nuw i32 %.09, 1
  %exitcond.not = icmp eq i32 %9, %2
  br i1 %exitcond.not, label %._crit_edge, label %.lr.ph, !llvm.loop !8

._crit_edge:                                      ; preds = %.lr.ph, %3
  ret void
}